Microchip MPLAB XC8 Compiler V2.46

Linker command line:

-W-3 \
  --edf=C:\Program Files\Microchip\xc8\v2.46\pic\dat\20240104201356_en.msgs \
  -pivt0x4008=04008h -cn \
  -h+dist/default/production\FinalProject.production.sym \
  --cmf=dist/default/production\FinalProject.production.cmf -z -Q18F47K42 \
  -oC:\Users\James\AppData\Local\Temp\xcAsm84.\driver_tmp_3.o \
  --defsym=__MPLAB_BUILD=1 --fixupoverflow=error \
  -Mdist/default/production/FinalProject.production.map \
  --md=C:\Users\James\AppData\Local\Temp\xcAsm84.\driver_tmp_0.dat -E1 \
  -ver=XC8 Compiler --acfsm=1493 -ACODE=00h-01FFFFh -ACONST=00h-01FFFFh \
  -ASMALLCONST=02000h-020FFhx480 \
  -AMEDIUMCONST=02000h-0FFFFh,012000h-01FFFFh -ACOMRAM=01h-05Fh \
  -AABS1=00h-01FFFh -ABIGRAM=01h-01FFFh -ARAM=060h-0FFh,0100h-01FFhx31 \
  -ABANK0=060h-0FFh -ABANK1=0100h-01FFh -ABANK2=0200h-02FFh \
  -ABANK3=0300h-03FFh -ABANK4=0400h-04FFh -ABANK5=0500h-05FFh \
  -ABANK6=0600h-06FFh -ABANK7=0700h-07FFh -ABANK8=0800h-08FFh \
  -ABANK9=0900h-09FFh -ABANK10=0A00h-0AFFh -ABANK11=0B00h-0BFFh \
  -ABANK12=0C00h-0CFFh -ABANK13=0D00h-0DFFh -ABANK14=0E00h-0EFFh \
  -ABANK15=0F00h-0FFFh -ABANK16=01000h-010FFh -ABANK17=01100h-011FFh \
  -ABANK18=01200h-012FFh -ABANK19=01300h-013FFh -ABANK20=01400h-014FFh \
  -ABANK21=01500h-015FFh -ABANK22=01600h-016FFh -ABANK23=01700h-017FFh \
  -ABANK24=01800h-018FFh -ABANK25=01900h-019FFh -ABANK26=01A00h-01AFFh \
  -ABANK27=01B00h-01BFFh -ABANK28=01C00h-01CFFh -ABANK29=01D00h-01DFFh \
  -ABANK30=01E00h-01EFFh -ABANK31=01F00h-01FFFh \
  -ASFR=03800h-038FFhx7,03F00h-03F5Fh,03F60h-03FFFh -ABIGSFR=03800h-03FFFh \
  -ACONFIG=0300000h-0300009h -AIDLOC=0200000h-020000Fh \
  -AEEDATA=0310000h-03103FFh -peeprom_data=EEDATA -preset_vec=00h \
  -ppowerup=CODE,init -pramtop=02000h -psmallconst=SMALLCONST \
  -pmediumconst=MEDIUMCONST -pconst=CONST -AFARRAM=00h-00h \
  -prdata=COMRAM,nvrram=COMRAM,nvbit=COMRAM,rbss=COMRAM,rbit=COMRAM \
  -pfarbss=FARRAM,fardata=FARRAM,nvFARRAM=FARRAM \
  -pintsave_regs=BIGRAM,bigbss=BIGRAM,bigdata=BIGRAM -pbss=RAM \
  -pidata=CODE,irdata=CODE,ibigdata=CODE,ifardata=CODE -prparam=COMRAM \
  C:\Users\James\AppData\Local\Temp\xcAsm84.\driver_tmp_14.o \
  dist/default/production\FinalProject.production.o 

Object code version is 3.11

Machine type is 18F47K42



                Name                               Link     Load   Length Selector   Space Scale
C:\Users\James\AppData\Local\Temp\xcAsm84.\driver_tmp_14.o
                config                           300000   300000        A        0       4
                init                               40AE     40AE        4     2004       0
                reset_vec                             0        0        4        0       0
dist/default/production\FinalProject.production.o
                config                           300000   300000        A        0       4
                mediumconst                        40B2     40B2      110     2059       0
                ivt0x4008                          4008     4008       A6     2004       0
                text51                             5BF6     5BF6       36     14CC       0
                text50                             5A38     5A38       4A     14CC       0
                text49                             5E0C     5E0C       1E     14CC       0
                text48                             5E8C     5E8C        8     14CC       0
                text47                             5DEE     5DEE       1E     14CC       0
                text46                             58E6     58E6       72     14CC       0
                text45                             5B0C     5B0C       40     14CC       0
                text44                             5D1C     5D1C       2A     14CC       0
                text43                             4F50     4F50      1CA     20E1       0
                text42                             54F2     54F2       C4     14CC       0
                text41                             5668     5668       B0     14CC       0
                text40                             5C2C     5C2C       34     14CC       0
                text39                             5EA2     5EA2        2     14CC       0
                text38                             57C6     57C6       AC     14CC       0
                text37                             4B7C     4B7C      1F2     20E1       0
                text36                             5A82     5A82       46     14CC       0
                text35                             5B88     5B88       38     14CC       0
                text34                             4766     4766      21C     20E1       0
                text33                             5330     5330       FC     14CC       0
                text32                             5CC2     5CC2       2E     14CC       0
                text31                             5958     5958       4C     14CC       0
                text30                             5DAE     5DAE       22     14CC       0
                text29                             5C92     5C92       30     14CC       0
                text28                             5D8C     5D8C       22     14CC       0
                text27                             5E2A     5E2A       1C     14CC       0
                text26                             5DD0     5DD0       1E     14CC       0
                text25                             5E9A     5E9A        4     14CC       0
                text24                             5E94     5E94        6     14CC       0
                text23                             5E84     5E84        8     14CC       0
                text22                             5D6A     5D6A       22     14CC       0
                text21                             5872     5872       74     14CC       0
                text20                             5AC8     5AC8       44     14CC       0
                text19                             5C60     5C60       32     14CC       0
                text18                             5E5A     5E5A       14     14CC       0
                text17                             542C     542C       C6     14CC       0
                text16                             55B6     55B6       B2     14CC       0
                text15                             5BC0     5BC0       36     14CC       0
                text14                             5EA0     5EA0        2     14CC       0
                text13                             5718     5718       AE     14CC       0
                text12                             4982     4982      1FA     20E1       0
                text11                             59EE     59EE       4A     14CC       0
                text10                             5B4C     5B4C       3C     14CC       0
                text9                              5224     5224      10A     20E1       0
                text8                              5D46     5D46       24     14CC       0
                text7                              5CF0     5CF0       2C     14CC       0
                text6                              4D6E     4D6E      1E2     20E1       0
                text5                              4530     4530      236     20E1       0
                text4                              5E46     5E46       14     14CC       0
                text3                              5E6E     5E6E        C     14CC       0
                text2                              5E7A     5E7A        A     14CC       0
                text1                              511A     511A      10A     20E1       0
                text0                              41C2     41C2      36E     20E1       0
                cstackCOMRAM                          1        1       51        1       1
                cstackBANK0                          60       60       53       60       1
                dataBANK0                            DA       DA        2       60       1
                bssBANK0                             B3       B3       27       60       1
                bssCOMRAM                            52       52        C        1       1
                cinit                              59A4     59A4       4A     14CC       0
                idataBANK0                         5E9E     5E9E        2     14CC       0

TOTAL           Name                               Link     Load   Length     Space
        CLASS   CODE           
                init                               40AE     40AE        4         0
                reset_vec                             0        0        4         0
                ivt0x4008                          4008     4008       A6         0
                text51                             5BF6     5BF6       36         0
                text50                             5A38     5A38       4A         0
                text49                             5E0C     5E0C       1E         0
                text48                             5E8C     5E8C        8         0
                text47                             5DEE     5DEE       1E         0
                text46                             58E6     58E6       72         0
                text45                             5B0C     5B0C       40         0
                text44                             5D1C     5D1C       2A         0
                text43                             4F50     4F50      1CA         0
                text42                             54F2     54F2       C4         0
                text41                             5668     5668       B0         0
                text40                             5C2C     5C2C       34         0
                text39                             5EA2     5EA2        2         0
                text38                             57C6     57C6       AC         0
                text37                             4B7C     4B7C      1F2         0
                text36                             5A82     5A82       46         0
                text35                             5B88     5B88       38         0
                text34                             4766     4766      21C         0
                text33                             5330     5330       FC         0
                text32                             5CC2     5CC2       2E         0
                text31                             5958     5958       4C         0
                text30                             5DAE     5DAE       22         0
                text29                             5C92     5C92       30         0
                text28                             5D8C     5D8C       22         0
                text27                             5E2A     5E2A       1C         0
                text26                             5DD0     5DD0       1E         0
                text25                             5E9A     5E9A        4         0
                text24                             5E94     5E94        6         0
                text23                             5E84     5E84        8         0
                text22                             5D6A     5D6A       22         0
                text21                             5872     5872       74         0
                text20                             5AC8     5AC8       44         0
                text19                             5C60     5C60       32         0
                text18                             5E5A     5E5A       14         0
                text17                             542C     542C       C6         0
                text16                             55B6     55B6       B2         0
                text15                             5BC0     5BC0       36         0
                text14                             5EA0     5EA0        2         0
                text13                             5718     5718       AE         0
                text12                             4982     4982      1FA         0
                text11                             59EE     59EE       4A         0
                text10                             5B4C     5B4C       3C         0
                text9                              5224     5224      10A         0
                text8                              5D46     5D46       24         0
                text7                              5CF0     5CF0       2C         0
                text6                              4D6E     4D6E      1E2         0
                text5                              4530     4530      236         0
                text4                              5E46     5E46       14         0
                text3                              5E6E     5E6E        C         0
                text2                              5E7A     5E7A        A         0
                text1                              511A     511A      10A         0
                text0                              41C2     41C2      36E         0
                cinit                              59A4     59A4       4A         0
                idataBANK0                         5E9E     5E9E        2         0

        CLASS   CONST          

        CLASS   SMALLCONST     

        CLASS   MEDIUMCONST    
                mediumconst                        40B2     40B2      110         0

        CLASS   COMRAM         
                cstackCOMRAM                          1        1       51         1
                bssCOMRAM                            52       52        C         1

        CLASS   ABS1           

        CLASS   BIGRAM         

        CLASS   RAM            

        CLASS   BANK0          
                cstackBANK0                          60       60       53         1
                dataBANK0                            DA       DA        2         1
                bssBANK0                             B3       B3       27         1

        CLASS   BANK1          

        CLASS   BANK2          

        CLASS   BANK3          

        CLASS   BANK4          

        CLASS   BANK5          

        CLASS   BANK6          

        CLASS   BANK7          

        CLASS   BANK8          

        CLASS   BANK9          

        CLASS   BANK10         

        CLASS   BANK11         

        CLASS   BANK12         

        CLASS   BANK13         

        CLASS   BANK14         

        CLASS   BANK15         

        CLASS   BANK16         

        CLASS   BANK17         

        CLASS   BANK18         

        CLASS   BANK19         

        CLASS   BANK20         

        CLASS   BANK21         

        CLASS   BANK22         

        CLASS   BANK23         

        CLASS   BANK24         

        CLASS   BANK25         

        CLASS   BANK26         

        CLASS   BANK27         

        CLASS   BANK28         

        CLASS   BANK29         

        CLASS   BANK30         

        CLASS   BANK31         

        CLASS   SFR            

        CLASS   BIGSFR         

        CLASS   CONFIG         
                config                           300000   300000        A         4

        CLASS   IDLOC          

        CLASS   EEDATA         

        CLASS   FARRAM         

        CLASS   HEAP           

        CLASS   STACK          



SEGMENTS        Name                           Load    Length   Top    Selector   Space  Class

                reset_vec                      000000  000004  000004         0       0  CODE    
                cstackCOMRAM                   000001  00005D  00005E         1       1  COMRAM  
                cstackBANK0                    000060  00007C  0000DC        60       1  BANK0   
                ivt0x4008                      004008  0000AA  0040B2      2004       0  CODE    
                mediumconst                    0040B2  000110  0041C2      2059       0  MEDIUMCO
                text0                          0041C2  00116C  00532E      20E1       0  CODE    
                text33                         005330  000B74  005EA4      14CC       0  CODE    


UNUSED ADDRESS RANGES

        Name                Unused          Largest block    Delta
        BANK0            0000DC-0000FF               24
        BANK1            000100-0001FF              100
        BANK10           000A00-000AFF              100
        BANK11           000B00-000BFF              100
        BANK12           000C00-000CFF              100
        BANK13           000D00-000DFF              100
        BANK14           000E00-000EFF              100
        BANK15           000F00-000FFF              100
        BANK16           001000-0010FF              100
        BANK17           001100-0011FF              100
        BANK18           001200-0012FF              100
        BANK19           001300-0013FF              100
        BANK2            000200-0002FF              100
        BANK20           001400-0014FF              100
        BANK21           001500-0015FF              100
        BANK22           001600-0016FF              100
        BANK23           001700-0017FF              100
        BANK24           001800-0018FF              100
        BANK25           001900-0019FF              100
        BANK26           001A00-001AFF              100
        BANK27           001B00-001BFF              100
        BANK28           001C00-001CFF              100
        BANK29           001D00-001DFF              100
        BANK3            000300-0003FF              100
        BANK30           001E00-001EFF              100
        BANK31           001F00-001FFF              100
        BANK4            000400-0004FF              100
        BANK5            000500-0005FF              100
        BANK6            000600-0006FF              100
        BANK7            000700-0007FF              100
        BANK8            000800-0008FF              100
        BANK9            000900-0009FF              100
        BIGRAM           00005E-00005F                2
                         0000DC-001FFF             1F24
        BIGSFR           003800-003FFF              800
        CODE             000004-004007             4004
                         00532E-00532F                2
                         005EA4-01FFFF            1A15C
        COMRAM           00005E-00005F                2
        CONST            000004-004007             4004
                         00532E-00532F                2
                         005EA4-01FFFF            1A15C
        EEDATA           310000-3103FF              400
        IDLOC            200000-20000F               10
        MEDIUMCONST      002000-004007             2008
                         00532E-00532F                2
                         005EA4-00FFFF             A15C
                         012000-01FFFF             E000
        RAM              0000DC-001FFF              100
        SFR              003800-003FFF              100
        SMALLCONST       002000-004007              100
                         00532E-00532F                2
                         005EA4-01FFFF              100

                                  Symbol Table

?___awdiv                     cstackBANK0  000060
?___awmod                     cstackBANK0  000060
?___wmul                      cstackBANK0  000060
?_abs                         cstackBANK0  000066
?_getKeypad                   cstackBANK0  000060
?_getValue                    cstackBANK0  00008F
?_sprintf                     cstackBANK0  00007D
?_vfprintf                    cstackBANK0  000077
?i2___awdiv                   cstackCOMRAM 000001
?i2___awmod                   cstackCOMRAM 000001
?i2___wmul                    cstackCOMRAM 000001
?i2_abs                       cstackCOMRAM 000007
?i2_getKeypad                 cstackCOMRAM 000001
?i2_getValue                  cstackCOMRAM 000030
?i2_sprintf                   cstackCOMRAM 00001E
?i2_vfprintf                  cstackCOMRAM 000018
IVTBASEH                      (abs)        003FD6
IVTBASEL                      (abs)        003FD5
IVTBASEU                      (abs)        003FD7
LCD_Char@dat                  cstackBANK0  000066
LCD_Command@cmd               cstackBANK0  000066
LCD_String@msg                cstackBANK0  000067
LCD_String_xy@location        cstackBANK0  00006D
LCD_String_xy@msg             cstackBANK0  00006A
LCD_String_xy@pos             cstackBANK0  000069
LCD_String_xy@row             cstackBANK0  00006C
MSdelay@i                     cstackBANK0  000062
MSdelay@j                     cstackBANK0  000064
MSdelay@val                   cstackBANK0  000060
PWM2_LoadDutyValue@dutyValue  cstackBANK0  000060
_ANSELA                       (abs)        003A40
_ANSELB                       (abs)        003A50
_ANSELCbits                   (abs)        003A60
_CCP2CON                      (abs)        003F7A
_CCP2CONbits                  (abs)        003F7A
_CCPR2H                       (abs)        003F79
_CCPR2L                       (abs)        003F78
_CCPTMRS0bits                 (abs)        003F5E
_INT0_ISR                     text33       005330
_INTCON0bits                  (abs)        003FD2
_INTERRUPT_Initialize         text32       005CC2
_IPR1bits                     (abs)        003981
_IVTBASEH                     (abs)        003FD6
_IVTBASEL                     (abs)        003FD5
_IVTBASEU                     (abs)        003FD7
_LATA                         (abs)        003FBA
_LATB                         (abs)        003FBB
_LATC2                        (abs)        01FDE2
_LATC3                        (abs)        01FDE3
_LATCbits                     (abs)        003FBC
_LATD                         (abs)        003FBD
_LCD_Char                     text22       005D6A
_LCD_Clear                    text23       005E84
_LCD_Command                  text30       005DAE
_LCD_Init                     text29       005C92
_LCD_String                   text21       005872
_LCD_String_xy                text20       005AC8
_MSdelay                      text31       005958
_NVMADRL                      (abs)        0039E0
_NVMCON1                      (abs)        0039E5
_NVMCON1bits                  (abs)        0039E5
_NVMCON2                      (abs)        0039E6
_NVMDAT                       (abs)        0039E3
_OSCFRQ                       (abs)        0039DF
_OSCSTATbits                  (abs)        0039DC
_PIE1bits                     (abs)        003991
_PIR1bits                     (abs)        0039A1
_PIR4bits                     (abs)        0039A4
_PORTA                        (abs)        003FCA
_PORTAbits                    (abs)        003FCA
_PORTB                        (abs)        003FCB
_PORTBbits                    (abs)        003FCB
_PORTCbits                    (abs)        003FCC
_PPSLOCK                      (abs)        003ABF
_PPSLOCKbits                  (abs)        003ABF
_PR2                          (abs)        003FAB
_PWM2_Initialize              text28       005D8C
_PWM2_LoadDutyValue           text19       005C60
_PWM2_OutputStatusGet         text18       005E5A
_PWM_Output_D8_Enable         text27       005E2A
_RB3PPS                       (abs)        003A0B
_T2CLKCON                     (abs)        003FAE
_T2CON                        (abs)        003FAC
_T2CONbits                    (abs)        003FAC
_T2HLT                        (abs)        003FAD
_T2PR                         (abs)        003FAB
_T2RST                        (abs)        003FAF
_T2TMR                        (abs)        003FAA
_TMR2                         (abs)        003FAA
_TMR2_Initialize              text26       005DD0
_TMR2_Start                   text25       005E9A
_TMR2_StartTimer              text24       005E94
_TRISA                        (abs)        003FC2
_TRISB                        (abs)        003FC3
_TRISBbits                    (abs)        003FC3
_TRISCbits                    (abs)        003FC4
_TRISD                        (abs)        003FC5
__HRAM                        (abs)        000000
__H__absolute__               __absolute__ 000000
__Habs1                       abs1         000000
__Hbank0                      bank0        000000
__Hbank1                      bank1        000000
__Hbank10                     bank10       000000
__Hbank11                     bank11       000000
__Hbank12                     bank12       000000
__Hbank13                     bank13       000000
__Hbank14                     bank14       000000
__Hbank15                     bank15       000000
__Hbank16                     bank16       000000
__Hbank17                     bank17       000000
__Hbank18                     bank18       000000
__Hbank19                     bank19       000000
__Hbank2                      bank2        000000
__Hbank20                     bank20       000000
__Hbank21                     bank21       000000
__Hbank22                     bank22       000000
__Hbank23                     bank23       000000
__Hbank24                     bank24       000000
__Hbank25                     bank25       000000
__Hbank26                     bank26       000000
__Hbank27                     bank27       000000
__Hbank28                     bank28       000000
__Hbank29                     bank29       000000
__Hbank3                      bank3        000000
__Hbank30                     bank30       000000
__Hbank31                     bank31       000000
__Hbank4                      bank4        000000
__Hbank5                      bank5        000000
__Hbank6                      bank6        000000
__Hbank7                      bank7        000000
__Hbank8                      bank8        000000
__Hbank9                      bank9        000000
__Hbigbss                     bigbss       000000
__Hbigdata                    bigdata      000000
__Hbigram                     bigram       000000
__Hbigsfr                     bigsfr       000000
__Hbss                        bss          000000
__HbssBANK0                   bssBANK0     000000
__HbssCOMRAM                  bssCOMRAM    000000
__Hcinit                      cinit        000000
__Hclrtext                    clrtext      000000
__Hcomram                     comram       000000
__Hconfig                     config       30000A
__Hconst                      const        000000
__HcstackBANK0                cstackBANK0  000000
__HcstackCOMRAM               cstackCOMRAM 000000
__Hdata                       data         000000
__HdataBANK0                  dataBANK0    000000
__Heeprom_data                eeprom_data  000000
__Hfarbss                     farbss       000000
__Hfardata                    fardata      000000
__Hheap                       heap         000000
__Hibigdata                   ibigdata     000000
__Hidata                      idata        000000
__HidataBANK0                 idataBANK0   000000
__Hidloc                      idloc        000000
__Hifardata                   ifardata     000000
__Hinit                       init         0040B2
__Hintsave_regs               intsave_regs 000000
__Hirdata                     irdata       000000
__Hivt0x4008                  ivt0x4008    0040AE
__Hmediumconst                mediumconst  0041C2
__HnvFARRAM                   nvFARRAM     000000
__Hnvbit                      nvbit        000000
__Hnvrram                     nvrram       000000
__Hparam                      rparam       000000
__Hpowerup                    powerup      000000
__Hram                        ram          000000
__Hramtop                     ramtop       002000
__Hrbit                       rbit         000000
__Hrbss                       rbss         000000
__Hrdata                      rdata        000000
__Hreset_vec                  reset_vec    000004
__Hrparam                     rparam       000000
__Hsfr                        sfr          000000
__Hsmallconst                 smallconst   000000
__Hspace_0                    (abs)        005EA4
__Hspace_1                    (abs)        0000DC
__Hspace_2                    (abs)        000000
__Hspace_4                    (abs)        60000A
__Hstack                      stack        000000
__Hstruct                     struct       000000
__Htemp                       temp         000000
__Htext                       text         000000
__Htext0                      text0        000000
__Htext1                      text1        000000
__Htext10                     text10       000000
__Htext11                     text11       000000
__Htext12                     text12       000000
__Htext13                     text13       000000
__Htext14                     text14       000000
__Htext15                     text15       000000
__Htext16                     text16       000000
__Htext17                     text17       000000
__Htext18                     text18       000000
__Htext19                     text19       000000
__Htext2                      text2        000000
__Htext20                     text20       000000
__Htext21                     text21       000000
__Htext22                     text22       000000
__Htext23                     text23       000000
__Htext24                     text24       000000
__Htext25                     text25       000000
__Htext26                     text26       000000
__Htext27                     text27       000000
__Htext28                     text28       000000
__Htext29                     text29       000000
__Htext3                      text3        000000
__Htext30                     text30       000000
__Htext31                     text31       000000
__Htext32                     text32       000000
__Htext33                     text33       000000
__Htext34                     text34       000000
__Htext35                     text35       000000
__Htext36                     text36       000000
__Htext37                     text37       000000
__Htext38                     text38       000000
__Htext39                     text39       000000
__Htext4                      text4        000000
__Htext40                     text40       000000
__Htext41                     text41       000000
__Htext42                     text42       000000
__Htext43                     text43       000000
__Htext44                     text44       000000
__Htext45                     text45       000000
__Htext46                     text46       000000
__Htext47                     text47       000000
__Htext48                     text48       000000
__Htext49                     text49       000000
__Htext5                      text5        000000
__Htext50                     text50       000000
__Htext51                     text51       000000
__Htext6                      text6        000000
__Htext7                      text7        000000
__Htext8                      text8        000000
__Htext9                      text9        000000
__LRAM                        (abs)        000001
__L__absolute__               __absolute__ 000000
__Labs1                       abs1         000000
__Lbank0                      bank0        000000
__Lbank1                      bank1        000000
__Lbank10                     bank10       000000
__Lbank11                     bank11       000000
__Lbank12                     bank12       000000
__Lbank13                     bank13       000000
__Lbank14                     bank14       000000
__Lbank15                     bank15       000000
__Lbank16                     bank16       000000
__Lbank17                     bank17       000000
__Lbank18                     bank18       000000
__Lbank19                     bank19       000000
__Lbank2                      bank2        000000
__Lbank20                     bank20       000000
__Lbank21                     bank21       000000
__Lbank22                     bank22       000000
__Lbank23                     bank23       000000
__Lbank24                     bank24       000000
__Lbank25                     bank25       000000
__Lbank26                     bank26       000000
__Lbank27                     bank27       000000
__Lbank28                     bank28       000000
__Lbank29                     bank29       000000
__Lbank3                      bank3        000000
__Lbank30                     bank30       000000
__Lbank31                     bank31       000000
__Lbank4                      bank4        000000
__Lbank5                      bank5        000000
__Lbank6                      bank6        000000
__Lbank7                      bank7        000000
__Lbank8                      bank8        000000
__Lbank9                      bank9        000000
__Lbigbss                     bigbss       000000
__Lbigdata                    bigdata      000000
__Lbigram                     bigram       000000
__Lbigsfr                     bigsfr       000000
__Lbss                        bss          000000
__LbssBANK0                   bssBANK0     000000
__LbssCOMRAM                  bssCOMRAM    000000
__Lcinit                      cinit        000000
__Lclrtext                    clrtext      000000
__Lcomram                     comram       000000
__Lconfig                     config       000000
__Lconst                      const        000000
__LcstackBANK0                cstackBANK0  000000
__LcstackCOMRAM               cstackCOMRAM 000000
__Ldata                       data         000000
__LdataBANK0                  dataBANK0    000000
__Leeprom_data                eeprom_data  000000
__Lfarbss                     farbss       000000
__Lfardata                    fardata      000000
__Lheap                       heap         000000
__Libigdata                   ibigdata     000000
__Lidata                      idata        000000
__LidataBANK0                 idataBANK0   000000
__Lidloc                      idloc        000000
__Lifardata                   ifardata     000000
__Linit                       init         0040AE
__Lintsave_regs               intsave_regs 000000
__Lirdata                     irdata       000000
__Livt0x4008                  ivt0x4008    004008
__Lmediumconst                mediumconst  0040B2
__LnvFARRAM                   nvFARRAM     000000
__Lnvbit                      nvbit        000000
__Lnvrram                     nvrram       000000
__Lparam                      rparam       000000
__Lpowerup                    powerup      000000
__Lram                        ram          000000
__Lramtop                     ramtop       002000
__Lrbit                       rbit         000000
__Lrbss                       rbss         000000
__Lrdata                      rdata        000000
__Lreset_vec                  reset_vec    000000
__Lrparam                     rparam       000000
__Lsfr                        sfr          000000
__Lsmallconst                 smallconst   000000
__Lspace_0                    (abs)        000000
__Lspace_1                    (abs)        000000
__Lspace_2                    (abs)        000000
__Lspace_4                    (abs)        000000
__Lstack                      stack        000000
__Lstruct                     struct       000000
__Ltemp                       temp         000000
__Ltext                       text         000000
__Ltext0                      text0        000000
__Ltext1                      text1        000000
__Ltext10                     text10       000000
__Ltext11                     text11       000000
__Ltext12                     text12       000000
__Ltext13                     text13       000000
__Ltext14                     text14       000000
__Ltext15                     text15       000000
__Ltext16                     text16       000000
__Ltext17                     text17       000000
__Ltext18                     text18       000000
__Ltext19                     text19       000000
__Ltext2                      text2        000000
__Ltext20                     text20       000000
__Ltext21                     text21       000000
__Ltext22                     text22       000000
__Ltext23                     text23       000000
__Ltext24                     text24       000000
__Ltext25                     text25       000000
__Ltext26                     text26       000000
__Ltext27                     text27       000000
__Ltext28                     text28       000000
__Ltext29                     text29       000000
__Ltext3                      text3        000000
__Ltext30                     text30       000000
__Ltext31                     text31       000000
__Ltext32                     text32       000000
__Ltext33                     text33       000000
__Ltext34                     text34       000000
__Ltext35                     text35       000000
__Ltext36                     text36       000000
__Ltext37                     text37       000000
__Ltext38                     text38       000000
__Ltext39                     text39       000000
__Ltext4                      text4        000000
__Ltext40                     text40       000000
__Ltext41                     text41       000000
__Ltext42                     text42       000000
__Ltext43                     text43       000000
__Ltext44                     text44       000000
__Ltext45                     text45       000000
__Ltext46                     text46       000000
__Ltext47                     text47       000000
__Ltext48                     text48       000000
__Ltext49                     text49       000000
__Ltext5                      text5        000000
__Ltext50                     text50       000000
__Ltext51                     text51       000000
__Ltext6                      text6        000000
__Ltext7                      text7        000000
__Ltext8                      text8        000000
__Ltext9                      text9        000000
__S0                          (abs)        005EA4
__S1                          (abs)        0000DC
__S4                          (abs)        000000
__S5                          (abs)        000000
___awdiv                      text17       00542C
___awdiv@counter              cstackBANK0  000064
___awdiv@dividend             cstackBANK0  000060
___awdiv@divisor              cstackBANK0  000062
___awdiv@quotient             cstackBANK0  000066
___awdiv@sign                 cstackBANK0  000065
___awmod                      text16       0055B6
___awmod@counter              cstackBANK0  000064
___awmod@dividend             cstackBANK0  000060
___awmod@divisor              cstackBANK0  000062
___awmod@sign                 cstackBANK0  000065
___heap_hi                    (abs)        000000
___heap_lo                    (abs)        000000
___inthi_sp                   stack        000000
___inthi_stack_hi             stack        000000
___inthi_stack_lo             stack        000000
___intlo_sp                   stack        000000
___intlo_stack_hi             stack        000000
___intlo_stack_lo             stack        000000
___param_bank                 (abs)        000000
___rparam_used                (abs)        000001
___sp                         stack        000000
___stack_hi                   stack        000000
___stack_lo                   stack        000000
___wmul                       text7        005CF0
___wmul@multiplicand          cstackBANK0  000062
___wmul@multiplier            cstackBANK0  000060
___wmul@product               cstackBANK0  000064
__accesstop                   (abs)        000060
__activetblptr                (abs)        000002
__end_of_INT0_ISR             text33       00542C
__end_of_INTERRUPT_Initialize text32       005CF0
__end_of_LCD_Char             text22       005D8C
__end_of_LCD_Clear            text23       005E8C
__end_of_LCD_Command          text30       005DD0
__end_of_LCD_Init             text29       005CC2
__end_of_LCD_String           text21       0058E6
__end_of_LCD_String_xy        text20       005B0C
__end_of_MSdelay              text31       0059A4
__end_of_PWM2_Initialize      text28       005DAE
__end_of_PWM2_LoadDutyValue   text19       005C92
__end_of_PWM2_OutputStatusGet text18       005E6E
__end_of_PWM_Output_D8_Enable text27       005E46
__end_of_TMR2_Initialize      text26       005DEE
__end_of_TMR2_Start           text25       005E9E
__end_of_TMR2_StartTimer      text24       005E9A
__end_of___awdiv              text17       0054F2
__end_of___awmod              text16       005668
__end_of___wmul               text7        005D1C
__end_of__initialization      cinit        0059E4
__end_of_abs                  text15       005BF6
__end_of_closeBox             text9        00532E
__end_of_eepromRead           text8        005D6A
__end_of_eepromWrite          text51       005C2C
__end_of_fputc                text13       0057C6
__end_of_getKeypad            text6        004F50
__end_of_getValue             text5        004766
__end_of_initializeKeypad     text2        005E84
__end_of_initializePORTA      text4        005E5A
__end_of_initializePORTC      text3        005E7A
__end_of_main                 text0        004530
__end_of_openBox              text1        005224
__end_of_putch                text14       005EA2
__end_of_sprintf              text10       005B88
__end_of_vfpfcnvrt            text12       004B7C
__end_of_vfprintf             text11       005A38
__end_ofi2_LCD_Char           text47       005E0C
__end_ofi2_LCD_Clear          text48       005E94
__end_ofi2_LCD_Command        text49       005E2A
__end_ofi2_LCD_String         text46       005958
__end_ofi2_LCD_String_xy      text45       005B4C
__end_ofi2_MSdelay            text50       005A82
__end_ofi2___awdiv            text42       0055B6
__end_ofi2___awmod            text41       005718
__end_ofi2___wmul             text44       005D46
__end_ofi2_abs                text40       005C60
__end_ofi2_fputc              text38       005872
__end_ofi2_getKeypad          text43       00511A
__end_ofi2_getValue           text34       004982
__end_ofi2_putch              text39       005EA4
__end_ofi2_sprintf            text35       005BC0
__end_ofi2_vfpfcnvrt          text37       004D6E
__end_ofi2_vfprintf           text36       005AC8
__initialization              cinit        0059A4
__mediumconst                 mediumconst  0040B2
__pbssBANK0                   bssBANK0     0000B3
__pbssCOMRAM                  bssCOMRAM    000052
__pcinit                      cinit        0059A4
__pcstackBANK0                cstackBANK0  000060
__pcstackCOMRAM               cstackCOMRAM 000001
__pdataBANK0                  dataBANK0    0000DA
__pidataBANK0                 idataBANK0   005E9E
__pivt0x4008                  ivt0x4008    004008
__pmediumconst                mediumconst  0040B2
__ptext0                      text0        0041C2
__ptext1                      text1        00511A
__ptext10                     text10       005B4C
__ptext11                     text11       0059EE
__ptext12                     text12       004982
__ptext13                     text13       005718
__ptext14                     text14       005EA0
__ptext15                     text15       005BC0
__ptext16                     text16       0055B6
__ptext17                     text17       00542C
__ptext18                     text18       005E5A
__ptext19                     text19       005C60
__ptext2                      text2        005E7A
__ptext20                     text20       005AC8
__ptext21                     text21       005872
__ptext22                     text22       005D6A
__ptext23                     text23       005E84
__ptext24                     text24       005E94
__ptext25                     text25       005E9A
__ptext26                     text26       005DD0
__ptext27                     text27       005E2A
__ptext28                     text28       005D8C
__ptext29                     text29       005C92
__ptext3                      text3        005E6E
__ptext30                     text30       005DAE
__ptext31                     text31       005958
__ptext32                     text32       005CC2
__ptext33                     text33       005330
__ptext34                     text34       004766
__ptext35                     text35       005B88
__ptext36                     text36       005A82
__ptext37                     text37       004B7C
__ptext38                     text38       0057C6
__ptext39                     text39       005EA2
__ptext4                      text4        005E46
__ptext40                     text40       005C2C
__ptext41                     text41       005668
__ptext42                     text42       0054F2
__ptext43                     text43       004F50
__ptext44                     text44       005D1C
__ptext45                     text45       005B0C
__ptext46                     text46       0058E6
__ptext47                     text47       005DEE
__ptext48                     text48       005E8C
__ptext49                     text49       005E0C
__ptext5                      text5        004530
__ptext50                     text50       005A38
__ptext51                     text51       005BF6
__ptext6                      text6        004D6E
__ptext7                      text7        005CF0
__ptext8                      text8        005D46
__ptext9                      text9        005224
__ramtop                      ramtop       002000
__smallconst                  smallconst   000000
_abs                          text15       005BC0
_closeBox                     text9        005224
_d                            bssCOMRAM    000052
_dbuf                         bssBANK0     0000B3
_eepromRead                   text8        005D46
_eepromWrite                  text51       005BF6
_flags                        bssBANK0     0000D9
_fputc                        text13       005718
_getKeypad                    text6        004D6E
_getValue                     text5        004530
_initializeKeypad             text2        005E7A
_initializePORTA              text4        005E46
_initializePORTC              text3        005E6E
_main                         text0        0041C2
_openBox                      text1        00511A
_password                     bssCOMRAM    00005C
_prec                         bssBANK0     0000D5
_putch                        text14       005EA0
_pword                        bssBANK0     0000D7
_sprintf                      text10       005B4C
_userGuess                    dataBANK0    0000DA
_vfpfcnvrt                    text12       004982
_vfprintf                     text11       0059EE
_width                        bssBANK0     0000D3
abs@a                         cstackBANK0  000066
closeBox@d                    cstackBANK0  000091
closeBox@i                    cstackBANK0  0000A0
closeBox@i_749                cstackBANK0  00009C
closeBox@j                    cstackBANK0  00009E
closeBox@pwmStatus            cstackBANK0  00009B
eepromRead@address            cstackBANK0  000060
eepromWrite@address           cstackCOMRAM 00000A
eepromWrite@data              cstackCOMRAM 000009
end_of_initialization         cinit        0059E4
fputc@c                       cstackBANK0  000060
fputc@fp                      cstackBANK0  000062
getKeypad@buttonNumber        cstackBANK0  000062
getValue@data                 cstackBANK0  000097
getValue@decimalValue         cstackBANK0  0000A1
getValue@value1               cstackBANK0  0000A3
getValue@value2               cstackBANK0  0000A5
getValue@value3               cstackBANK0  0000A7
getValue@value4               cstackBANK0  0000A9
i2LCD_Char@dat                cstackCOMRAM 000007
i2LCD_Command@cmd             cstackCOMRAM 000007
i2LCD_String@msg              cstackCOMRAM 000008
i2LCD_String_xy@location      cstackCOMRAM 00000E
i2LCD_String_xy@msg           cstackCOMRAM 00000B
i2LCD_String_xy@pos           cstackCOMRAM 00000A
i2LCD_String_xy@row           cstackCOMRAM 00000D
i2MSdelay@i                   cstackCOMRAM 000003
i2MSdelay@j                   cstackCOMRAM 000005
i2MSdelay@val                 cstackCOMRAM 000001
i2_LCD_Char                   text47       005DEE
i2_LCD_Clear                  text48       005E8C
i2_LCD_Command                text49       005E0C
i2_LCD_String                 text46       0058E6
i2_LCD_String_xy              text45       005B0C
i2_MSdelay                    text50       005A38
i2___awdiv                    text42       0054F2
i2___awdiv@counter            cstackCOMRAM 000005
i2___awdiv@dividend           cstackCOMRAM 000001
i2___awdiv@divisor            cstackCOMRAM 000003
i2___awdiv@quotient           cstackCOMRAM 000007
i2___awdiv@sign               cstackCOMRAM 000006
i2___awmod                    text41       005668
i2___awmod@counter            cstackCOMRAM 000005
i2___awmod@dividend           cstackCOMRAM 000001
i2___awmod@divisor            cstackCOMRAM 000003
i2___awmod@sign               cstackCOMRAM 000006
i2___wmul                     text44       005D1C
i2___wmul@multiplicand        cstackCOMRAM 000003
i2___wmul@multiplier          cstackCOMRAM 000001
i2___wmul@product             cstackCOMRAM 000005
i2_abs                        text40       005C2C
i2_fputc                      text38       0057C6
i2_getKeypad                  text43       004F50
i2_getValue                   text34       004766
i2_putch                      text39       005EA2
i2_sprintf                    text35       005B88
i2_vfpfcnvrt                  text37       004B7C
i2_vfprintf                   text36       005A82
i2abs@a                       cstackCOMRAM 000007
i2fputc@c                     cstackCOMRAM 000001
i2fputc@fp                    cstackCOMRAM 000003
i2getKeypad@buttonNumber      cstackCOMRAM 000003
i2getValue@data               cstackCOMRAM 000038
i2getValue@decimalValue       cstackCOMRAM 000042
i2getValue@value1             cstackCOMRAM 000044
i2getValue@value2             cstackCOMRAM 000046
i2getValue@value3             cstackCOMRAM 000048
i2getValue@value4             cstackCOMRAM 00004A
i2sprintf@ap                  cstackCOMRAM 000023
i2sprintf@f                   cstackCOMRAM 000024
i2sprintf@fmt                 cstackCOMRAM 00001F
i2sprintf@s                   cstackCOMRAM 00001E
i2vfpfcnvrt@ap                cstackCOMRAM 00000D
i2vfpfcnvrt@c                 cstackCOMRAM 000017
i2vfpfcnvrt@convarg           cstackCOMRAM 000013
i2vfpfcnvrt@cp                cstackCOMRAM 000011
i2vfpfcnvrt@done              cstackCOMRAM 000010
i2vfpfcnvrt@fmt               cstackCOMRAM 00000C
i2vfpfcnvrt@fp                cstackCOMRAM 00000B
i2vfprintf@ap                 cstackCOMRAM 00001B
i2vfprintf@cfmt               cstackCOMRAM 00001C
i2vfprintf@fmt                cstackCOMRAM 000019
i2vfprintf@fp                 cstackCOMRAM 000018
intlevel0                     text         000000
intlevel1                     text         000000
intlevel2                     text         000000
intlevel3                     text         000000
isa$std                       (abs)        000001
isa$xinst                     (abs)        000000
ivt0x4008_base                ivt0x4008    004008
ivt0x4008_undefint            ivt0x4008    0040AC
main@i                        cstackBANK0  0000AF
main@i_854                    cstackBANK0  0000B1
openBox@d                     cstackBANK0  000091
openBox@i                     cstackBANK0  0000A0
openBox@i_741                 cstackBANK0  00009C
openBox@j                     cstackBANK0  00009E
openBox@pwmStatus             cstackBANK0  00009B
sprintf@ap                    cstackBANK0  000082
sprintf@f                     cstackBANK0  000083
sprintf@fmt                   cstackBANK0  00007E
sprintf@s                     cstackBANK0  00007D
stackhi                       (abs)        000000
stacklo                       (abs)        000000
start                         init         0040AE
start_initialization          cinit        0059A4
vfpfcnvrt@ap                  cstackBANK0  00006C
vfpfcnvrt@c                   cstackBANK0  000076
vfpfcnvrt@convarg             cstackBANK0  000072
vfpfcnvrt@cp                  cstackBANK0  000070
vfpfcnvrt@done                cstackBANK0  00006F
vfpfcnvrt@fmt                 cstackBANK0  00006B
vfpfcnvrt@fp                  cstackBANK0  00006A
vfprintf@ap                   cstackBANK0  00007A
vfprintf@cfmt                 cstackBANK0  00007B
vfprintf@fmt                  cstackBANK0  000078
vfprintf@fp                   cstackBANK0  000077


MODULE INFORMATION

Module		Function		Class		Link	Load	Size
C:\Program Files\Microchip\xc8\v2.46\pic\sources\c99\common\nf_fputc.c
		_fputc         		CODE           	5718	0000	174

C:\Program Files\Microchip\xc8\v2.46\pic\sources\c99\common\nf_fputc.c estimated size: 174

C:\Program Files\Microchip\xc8\v2.46\pic\sources\c99\common\awdiv.c
		___awdiv       		CODE           	542C	0000	198

C:\Program Files\Microchip\xc8\v2.46\pic\sources\c99\common\awdiv.c estimated size: 198

./LCD.h
		_LCD_String    		CODE           	5872	0000	116
		_LCD_Init      		CODE           	5C92	0000	48
		_LCD_Command   		CODE           	5DAE	0000	34
		_LCD_String_xy 		CODE           	5AC8	0000	68
		_LCD_Char      		CODE           	5D6A	0000	34
		_LCD_Clear     		CODE           	5E84	0000	8
		_MSdelay       		CODE           	5958	0000	76

./LCD.h estimated size: 384

C:\Program Files\Microchip\xc8\v2.46\pic\sources\c99\common\doprnt.c
		_vfpfcnvrt     		CODE           	4982	0000	506
		_vfprintf      		CODE           	59EE	0000	74

C:\Program Files\Microchip\xc8\v2.46\pic\sources\c99\common\doprnt.c estimated size: 580

C:\Program Files\Microchip\xc8\v2.46\pic\sources\c99\common\nf_sprintf.c
		_sprintf       		CODE           	5B4C	0000	60

C:\Program Files\Microchip\xc8\v2.46\pic\sources\c99\common\nf_sprintf.c estimated size: 60

./servo.h
		_PWM2_Initialize		CODE           	5D8C	0000	34
		_TMR2_Initialize		CODE           	5DD0	0000	30
		_TMR2_Start    		CODE           	5E9A	0000	4
		_PWM_Output_D8_Enable		CODE           	5E2A	0000	28
		_closeBox      		CODE           	5224	0000	266
		_openBox       		CODE           	511A	0000	266
		_PWM2_OutputStatusGet		CODE           	5E5A	0000	20
		_TMR2_StartTimer		CODE           	5E94	0000	6
		_PWM2_LoadDutyValue		CODE           	5C60	0000	50

./servo.h estimated size: 704

./interrupt.h
		_INTERRUPT_Initialize		CODE           	5CC2	0000	46
		_eepromWrite   		CODE           	5BF6	0000	54
		_INT0_ISR      		CODE           	5330	0000	252
		_eepromRead    		CODE           	5D46	0000	36

./interrupt.h estimated size: 388

shared
		i2_vfpfcnvrt   		CODE           	4B7C	0000	498
		i2_abs         		CODE           	5C2C	0000	52
		i2_getKeypad   		CODE           	4F50	0000	458
		i2_getValue    		CODE           	4766	0000	540
		i2_putch       		CODE           	5EA2	0000	2
		i2_LCD_Char    		CODE           	5DEE	0000	30
		i2_LCD_Clear   		CODE           	5E8C	0000	8
		i2_LCD_String  		CODE           	58E6	0000	114
		i2_vfprintf    		CODE           	5A82	0000	70
		i2_LCD_Command 		CODE           	5E0C	0000	30
		i2___awdiv     		CODE           	54F2	0000	196
		i2_MSdelay     		CODE           	5A38	0000	74
		i2___wmul      		CODE           	5D1C	0000	42
		__initialization		CODE           	59A4	0000	64
		i2___awmod     		CODE           	5668	0000	176
		i2_sprintf     		CODE           	5B88	0000	56
		i2_LCD_String_xy		CODE           	5B0C	0000	64
		i2_fputc       		CODE           	57C6	0000	172

shared estimated size: 2646

C:\Program Files\Microchip\xc8\v2.46\pic\sources\c99\common\putch.c
		_putch         		CODE           	5EA0	0000	2

C:\Program Files\Microchip\xc8\v2.46\pic\sources\c99\common\putch.c estimated size: 2

C:\Program Files\Microchip\xc8\v2.46\pic\sources\c99\common\Umul16.c
		___wmul        		CODE           	5CF0	0000	44

C:\Program Files\Microchip\xc8\v2.46\pic\sources\c99\common\Umul16.c estimated size: 44

C:\Program Files\Microchip\xc8\v2.46\pic\sources\c99\common\abs.c
		_abs           		CODE           	5BC0	0000	54

C:\Program Files\Microchip\xc8\v2.46\pic\sources\c99\common\abs.c estimated size: 54

C:\Program Files\Microchip\xc8\v2.46\pic\sources\c99\common\awmod.c
		___awmod       		CODE           	55B6	0000	178

C:\Program Files\Microchip\xc8\v2.46\pic\sources\c99\common\awmod.c estimated size: 178

./keypad.h
		_getValue      		CODE           	4530	0000	566
		_initializePORTA		CODE           	5E46	0000	20
		_initializePORTC		CODE           	5E6E	0000	12
		_getKeypad     		CODE           	4D6E	0000	482
		_initializeKeypad		CODE           	5E7A	0000	10

./keypad.h estimated size: 1090

main.c
		_main          		CODE           	41C2	0000	878

main.c estimated size: 878

